; Function Attrs: mustprogress uwtable
define noundef i32 @_ZNK8proxygen16QPACKHeaderTable18internalToAbsoluteEj(ptr noundef nonnull align 8 dereferenceable(104) %this, i32 noundef %internalIndex) local_unnamed_addr #3 align 2 personality ptr @__gxx_personality_v0 {
entry:
  %call = tail call noundef i32 @_ZNK8proxygen11HeaderTable10toExternalEj(ptr noundef nonnull align 8 dereferenceable(80) %this, i32 noundef %internalIndex)
  %insertCount_.i = getelementptr inbounds i8, ptr %this, i64 48
  %0 = load i32, ptr %insertCount_.i, align 8
  %reass.sub = sub i32 %0, %call
  %add.i = add i32 %reass.sub, 1
  ret i32 %add.i
}